target datalayout = "e-m:e-p270:32:32-p271:32:32-p272:64:64-i64:64-i128:128-f80:128-n8:16:32:64-S128"
target triple = "x86_64-pc-linux-gnu"

%"class.std::__cxx11::basic_string" = type { %"struct.std::__cxx11::basic_string<char>::_Alloc_hider", i64, %union.anon }
%"struct.std::__cxx11::basic_string<char>::_Alloc_hider" = type { ptr }
%union.anon = type { i64, [8 x i8] }
%"struct.std::_Rb_tree_key_compare" = type { %"struct.std::less" }
%"struct.std::less" = type { i8 }
%"struct.std::_Rb_tree_header" = type { %"struct.std::_Rb_tree_node_base", i64 }
%"struct.std::_Rb_tree_node_base" = type { i32, ptr, ptr, ptr }
%"struct.nix::flake::Flake" = type { %"struct.nix::FlakeRef", %"struct.nix::FlakeRef", %"struct.nix::FlakeRef", %"struct.nix::SourcePath", i8, [7 x i8], %"class.std::optional", %"class.std::map.8", %"struct.nix::flake::ConfigFile" }
%"struct.nix::FlakeRef" = type { %"struct.nix::fetchers::Input", %"class.std::__cxx11::basic_string" }
%"struct.nix::fetchers::Input" = type { %"class.std::shared_ptr", %"class.std::map", %"class.std::optional" }
%"class.std::shared_ptr" = type { %"class.std::__shared_ptr" }
%"class.std::__shared_ptr" = type { ptr, %"class.std::__shared_count" }
%"class.std::__shared_count" = type { ptr }
%"class.std::map" = type { %"class.std::_Rb_tree" }
%"class.std::_Rb_tree" = type { %"struct.std::_Rb_tree<std::__cxx11::basic_string<char>, std::pair<const std::__cxx11::basic_string<char>, std::variant<std::__cxx11::basic_string<char>, unsigned long, nix::Explicit<bool>>>, std::_Select1st<std::pair<const std::__cxx11::basic_string<char>, std::variant<std::__cxx11::basic_string<char>, unsigned long, nix::Explicit<bool>>>>, std::less<std::__cxx11::basic_string<char>>>::_Rb_tree_impl" }
%"struct.std::_Rb_tree<std::__cxx11::basic_string<char>, std::pair<const std::__cxx11::basic_string<char>, std::variant<std::__cxx11::basic_string<char>, unsigned long, nix::Explicit<bool>>>, std::_Select1st<std::pair<const std::__cxx11::basic_string<char>, std::variant<std::__cxx11::basic_string<char>, unsigned long, nix::Explicit<bool>>>>, std::less<std::__cxx11::basic_string<char>>>::_Rb_tree_impl" = type { %"struct.std::_Rb_tree_key_compare", %"struct.std::_Rb_tree_header" }
%"struct.nix::SourcePath" = type { %"class.nix::ref", %"class.nix::CanonPath" }
%"class.nix::ref" = type { %"class.std::shared_ptr.5" }
%"class.std::shared_ptr.5" = type { %"class.std::__shared_ptr.6" }
%"class.std::__shared_ptr.6" = type { ptr, %"class.std::__shared_count" }
%"class.nix::CanonPath" = type { %"class.std::__cxx11::basic_string" }
%"class.std::optional" = type { %"struct.std::_Optional_base" }
%"struct.std::_Optional_base" = type { %"struct.std::_Optional_payload" }
%"struct.std::_Optional_payload" = type { %"struct.std::_Optional_payload.base", [7 x i8] }
%"struct.std::_Optional_payload.base" = type { %"struct.std::_Optional_payload_base.base" }
%"struct.std::_Optional_payload_base.base" = type <{ %"union.std::_Optional_payload_base<std::__cxx11::basic_string<char>>::_Storage", i8 }>
%"union.std::_Optional_payload_base<std::__cxx11::basic_string<char>>::_Storage" = type { %"class.std::__cxx11::basic_string" }
%"class.std::map.8" = type { %"class.std::_Rb_tree.9" }
%"class.std::_Rb_tree.9" = type { %"struct.std::_Rb_tree<std::__cxx11::basic_string<char>, std::pair<const std::__cxx11::basic_string<char>, nix::flake::FlakeInput>, std::_Select1st<std::pair<const std::__cxx11::basic_string<char>, nix::flake::FlakeInput>>, std::less<std::__cxx11::basic_string<char>>>::_Rb_tree_impl" }
%"struct.std::_Rb_tree<std::__cxx11::basic_string<char>, std::pair<const std::__cxx11::basic_string<char>, nix::flake::FlakeInput>, std::_Select1st<std::pair<const std::__cxx11::basic_string<char>, nix::flake::FlakeInput>>, std::less<std::__cxx11::basic_string<char>>>::_Rb_tree_impl" = type { %"struct.std::_Rb_tree_key_compare", %"struct.std::_Rb_tree_header" }
%"struct.nix::flake::ConfigFile" = type { %"class.std::map.13" }
%"class.std::map.13" = type { %"class.std::_Rb_tree.14" }
%"class.std::_Rb_tree.14" = type { %"struct.std::_Rb_tree<std::__cxx11::basic_string<char>, std::pair<const std::__cxx11::basic_string<char>, std::variant<std::__cxx11::basic_string<char>, long, nix::Explicit<bool>, std::vector<std::__cxx11::basic_string<char>>>>, std::_Select1st<std::pair<const std::__cxx11::basic_string<char>, std::variant<std::__cxx11::basic_string<char>, long, nix::Explicit<bool>, std::vector<std::__cxx11::basic_string<char>>>>>, std::less<std::__cxx11::basic_string<char>>>::_Rb_tree_impl" }
%"struct.std::_Rb_tree<std::__cxx11::basic_string<char>, std::pair<const std::__cxx11::basic_string<char>, std::variant<std::__cxx11::basic_string<char>, long, nix::Explicit<bool>, std::vector<std::__cxx11::basic_string<char>>>>, std::_Select1st<std::pair<const std::__cxx11::basic_string<char>, std::variant<std::__cxx11::basic_string<char>, long, nix::Explicit<bool>, std::vector<std::__cxx11::basic_string<char>>>>>, std::less<std::__cxx11::basic_string<char>>>::_Rb_tree_impl" = type { %"struct.std::_Rb_tree_key_compare", %"struct.std::_Rb_tree_header" }
%"class.std::vector" = type { %"struct.std::_Vector_base" }
%"struct.std::_Vector_base" = type { %"struct.std::_Vector_base<std::__cxx11::basic_string<char>, std::allocator<std::__cxx11::basic_string<char>>>::_Vector_impl" }
%"struct.std::_Vector_base<std::__cxx11::basic_string<char>, std::allocator<std::__cxx11::basic_string<char>>>::_Vector_impl" = type { %"struct.std::_Vector_base<std::__cxx11::basic_string<char>, std::allocator<std::__cxx11::basic_string<char>>>::_Vector_impl_data" }
%"struct.std::_Vector_base<std::__cxx11::basic_string<char>, std::allocator<std::__cxx11::basic_string<char>>>::_Vector_impl_data" = type { ptr, ptr, ptr }
%"class.std::vector.125" = type { %"struct.std::_Vector_base.126" }
%"struct.std::_Vector_base.126" = type { %"struct.std::_Vector_base<std::pair<nix::FlakeRef, std::pair<nix::StorePath, nix::FlakeRef>>, std::allocator<std::pair<nix::FlakeRef, std::pair<nix::StorePath, nix::FlakeRef>>>>::_Vector_impl" }
%"struct.std::_Vector_base<std::pair<nix::FlakeRef, std::pair<nix::StorePath, nix::FlakeRef>>, std::allocator<std::pair<nix::FlakeRef, std::pair<nix::StorePath, nix::FlakeRef>>>>::_Vector_impl" = type { %"struct.std::_Vector_base<std::pair<nix::FlakeRef, std::pair<nix::StorePath, nix::FlakeRef>>, std::allocator<std::pair<nix::FlakeRef, std::pair<nix::StorePath, nix::FlakeRef>>>>::_Vector_impl_data" }
%"struct.std::_Vector_base<std::pair<nix::FlakeRef, std::pair<nix::StorePath, nix::FlakeRef>>, std::allocator<std::pair<nix::FlakeRef, std::pair<nix::StorePath, nix::FlakeRef>>>>::_Vector_impl_data" = type { ptr, ptr, ptr }

; Function Attrs: mustprogress nounwind uwtable
define linkonce_odr void @_ZNSt15__new_allocatorINSt7__cxx1112basic_stringIcSt11char_traitsIcESaIcEEEEC2Ev(ptr noundef nonnull align 1 dereferenceable(1) %0) unnamed_addr #2 comdat align 2 {
  %2 = alloca ptr, align 8
  store ptr %0, ptr %2, align 8
  ret void
}

; Function Attrs: mustprogress nounwind uwtable
define linkonce_odr void @_ZNSt12_Vector_baseINSt7__cxx1112basic_stringIcSt11char_traitsIcESaIcEEESaIS5_EE17_Vector_impl_dataC2Ev(ptr noundef nonnull align 8 dereferenceable(24) %0) unnamed_addr #2 comdat align 2 {
  %2 = alloca ptr, align 8
  store ptr %0, ptr %2, align 8
  %3 = load ptr, ptr %2, align 8
  %4 = getelementptr inbounds %"struct.std::_Vector_base<std::__cxx11::basic_string<char>, std::allocator<std::__cxx11::basic_string<char>>>::_Vector_impl_data", ptr %3, i32 0, i32 0
  store ptr null, ptr %4, align 8
  %5 = getelementptr inbounds %"struct.std::_Vector_base<std::__cxx11::basic_string<char>, std::allocator<std::__cxx11::basic_string<char>>>::_Vector_impl_data", ptr %3, i32 0, i32 1
  store ptr null, ptr %5, align 8
  %6 = getelementptr inbounds %"struct.std::_Vector_base<std::__cxx11::basic_string<char>, std::allocator<std::__cxx11::basic_string<char>>>::_Vector_impl_data", ptr %3, i32 0, i32 2
  store ptr null, ptr %6, align 8
  ret void
}

; Function Attrs: mustprogress nounwind uwtable
define linkonce_odr void @_ZNSaINSt7__cxx1112basic_stringIcSt11char_traitsIcESaIcEEEEC2Ev(ptr noundef nonnull align 1 dereferenceable(1) %0) unnamed_addr #2 comdat align 2 {
  %2 = alloca ptr, align 8
  store ptr %0, ptr %2, align 8
  %3 = load ptr, ptr %2, align 8
  call void @_ZNSt15__new_allocatorINSt7__cxx1112basic_stringIcSt11char_traitsIcESaIcEEEEC2Ev(ptr noundef nonnull align 1 dereferenceable(1) %3) #1
  ret void
}

; Function Attrs: mustprogress nounwind uwtable
define linkonce_odr void @_ZNSt15__new_allocatorISt4pairIN3nix8FlakeRefES0_INS1_9StorePathES2_EEEC2Ev(ptr noundef nonnull align 1 dereferenceable(1) %0) unnamed_addr #2 comdat align 2 {
  %2 = alloca ptr, align 8
  store ptr %0, ptr %2, align 8
  ret void
}

; Function Attrs: mustprogress nounwind uwtable
define linkonce_odr void @_ZNSt12_Vector_baseINSt7__cxx1112basic_stringIcSt11char_traitsIcESaIcEEESaIS5_EE12_Vector_implC2Ev(ptr noundef nonnull align 8 dereferenceable(24) %0) unnamed_addr #2 comdat align 2 {
  %2 = alloca ptr, align 8
  store ptr %0, ptr %2, align 8
  %3 = load ptr, ptr %2, align 8
  call void @_ZNSaINSt7__cxx1112basic_stringIcSt11char_traitsIcESaIcEEEEC2Ev(ptr noundef nonnull align 1 dereferenceable(1) %3) #1
  call void @_ZNSt12_Vector_baseINSt7__cxx1112basic_stringIcSt11char_traitsIcESaIcEEESaIS5_EE17_Vector_impl_dataC2Ev(ptr noundef nonnull align 8 dereferenceable(24) %3) #1
  ret void
}

; Function Attrs: mustprogress nounwind uwtable
define linkonce_odr void @_ZNSt12_Vector_baseISt4pairIN3nix8FlakeRefES0_INS1_9StorePathES2_EESaIS5_EE17_Vector_impl_dataC2Ev(ptr noundef nonnull align 8 dereferenceable(24) %0) unnamed_addr #2 comdat align 2 {
  %2 = alloca ptr, align 8
  store ptr %0, ptr %2, align 8
  %3 = load ptr, ptr %2, align 8
  %4 = getelementptr inbounds %"struct.std::_Vector_base<std::pair<nix::FlakeRef, std::pair<nix::StorePath, nix::FlakeRef>>, std::allocator<std::pair<nix::FlakeRef, std::pair<nix::StorePath, nix::FlakeRef>>>>::_Vector_impl_data", ptr %3, i32 0, i32 0
  store ptr null, ptr %4, align 8
  %5 = getelementptr inbounds %"struct.std::_Vector_base<std::pair<nix::FlakeRef, std::pair<nix::StorePath, nix::FlakeRef>>, std::allocator<std::pair<nix::FlakeRef, std::pair<nix::StorePath, nix::FlakeRef>>>>::_Vector_impl_data", ptr %3, i32 0, i32 1
  store ptr null, ptr %5, align 8
  %6 = getelementptr inbounds %"struct.std::_Vector_base<std::pair<nix::FlakeRef, std::pair<nix::StorePath, nix::FlakeRef>>, std::allocator<std::pair<nix::FlakeRef, std::pair<nix::StorePath, nix::FlakeRef>>>>::_Vector_impl_data", ptr %3, i32 0, i32 2
  store ptr null, ptr %6, align 8
  ret void
}

; Function Attrs: mustprogress nounwind uwtable
define linkonce_odr void @_ZNSaISt4pairIN3nix8FlakeRefES_INS0_9StorePathES1_EEEC2Ev(ptr noundef nonnull align 1 dereferenceable(1) %0) unnamed_addr #2 comdat align 2 {
  %2 = alloca ptr, align 8
  store ptr %0, ptr %2, align 8
  %3 = load ptr, ptr %2, align 8
  call void @_ZNSt15__new_allocatorISt4pairIN3nix8FlakeRefES0_INS1_9StorePathES2_EEEC2Ev(ptr noundef nonnull align 1 dereferenceable(1) %3) #1
  ret void
}

; Function Attrs: mustprogress nounwind uwtable
define linkonce_odr void @_ZNSt12_Vector_baseINSt7__cxx1112basic_stringIcSt11char_traitsIcESaIcEEESaIS5_EEC2Ev(ptr noundef nonnull align 8 dereferenceable(24) %0) unnamed_addr #2 comdat align 2 {
  %2 = alloca ptr, align 8
  store ptr %0, ptr %2, align 8
  %3 = load ptr, ptr %2, align 8
  %4 = getelementptr inbounds %"struct.std::_Vector_base", ptr %3, i32 0, i32 0
  call void @_ZNSt12_Vector_baseINSt7__cxx1112basic_stringIcSt11char_traitsIcESaIcEEESaIS5_EE12_Vector_implC2Ev(ptr noundef nonnull align 8 dereferenceable(24) %4) #1
  ret void
}

; Function Attrs: mustprogress nounwind uwtable
define linkonce_odr void @_ZNSt12_Vector_baseISt4pairIN3nix8FlakeRefES0_INS1_9StorePathES2_EESaIS5_EE12_Vector_implC2Ev(ptr noundef nonnull align 8 dereferenceable(24) %0) unnamed_addr #2 comdat align 2 {
  %2 = alloca ptr, align 8
  store ptr %0, ptr %2, align 8
  %3 = load ptr, ptr %2, align 8
  call void @_ZNSaISt4pairIN3nix8FlakeRefES_INS0_9StorePathES1_EEEC2Ev(ptr noundef nonnull align 1 dereferenceable(1) %3) #1
  call void @_ZNSt12_Vector_baseISt4pairIN3nix8FlakeRefES0_INS1_9StorePathES2_EESaIS5_EE17_Vector_impl_dataC2Ev(ptr noundef nonnull align 8 dereferenceable(24) %3) #1
  ret void
}

; Function Attrs: mustprogress nounwind uwtable
define linkonce_odr void @_ZNSt6vectorINSt7__cxx1112basic_stringIcSt11char_traitsIcESaIcEEESaIS5_EEC2Ev(ptr noundef nonnull align 8 dereferenceable(24) %0) unnamed_addr #2 comdat align 2 {
  %2 = alloca ptr, align 8
  store ptr %0, ptr %2, align 8
  %3 = load ptr, ptr %2, align 8
  call void @_ZNSt12_Vector_baseINSt7__cxx1112basic_stringIcSt11char_traitsIcESaIcEEESaIS5_EEC2Ev(ptr noundef nonnull align 8 dereferenceable(24) %3) #1
  ret void
}

; Function Attrs: mustprogress nounwind uwtable
define linkonce_odr void @_ZNSt12_Vector_baseISt4pairIN3nix8FlakeRefES0_INS1_9StorePathES2_EESaIS5_EEC2Ev(ptr noundef nonnull align 8 dereferenceable(24) %0) unnamed_addr #2 comdat align 2 {
  %2 = alloca ptr, align 8
  store ptr %0, ptr %2, align 8
  %3 = load ptr, ptr %2, align 8
  %4 = getelementptr inbounds %"struct.std::_Vector_base.126", ptr %3, i32 0, i32 0
  call void @_ZNSt12_Vector_baseISt4pairIN3nix8FlakeRefES0_INS1_9StorePathES2_EESaIS5_EE12_Vector_implC2Ev(ptr noundef nonnull align 8 dereferenceable(24) %4) #1
  ret void
}

; Function Attrs: mustprogress uwtable
define void @_ZN3nix5flake8getFlakeERNS_9EvalStateERKNS_8FlakeRefEbRSt6vectorISt4pairIS3_S7_INS_9StorePathES3_EESaISA_EE(ptr dead_on_unwind noalias writable sret(%"struct.nix::flake::Flake") align 8 %0, ptr noundef nonnull align 8 dereferenceable(1248) %1, ptr noundef nonnull align 8 dereferenceable(136) %2, i1 noundef zeroext %3, ptr noundef nonnull align 8 dereferenceable(24) %4) #5 personality ptr @__gxx_personality_v0 {
  %6 = alloca ptr, align 8
  %7 = alloca ptr, align 8
  %8 = alloca ptr, align 8
  %9 = alloca i8, align 1
  %10 = alloca ptr, align 8
  %11 = alloca %"class.std::vector", align 8
  %12 = alloca ptr, align 8
  %13 = alloca i32, align 4
  store ptr %0, ptr %6, align 8
  store ptr %1, ptr %7, align 8
  store ptr %2, ptr %8, align 8
  %14 = zext i1 %3 to i8
  store i8 %14, ptr %9, align 1
  store ptr %4, ptr %10, align 8
  %15 = load ptr, ptr %7, align 8
  %16 = load ptr, ptr %8, align 8
  %17 = load i8, ptr %9, align 1
  %18 = trunc i8 %17 to i1
  %19 = load ptr, ptr %10, align 8
  call void @llvm.memset.p0.i64(ptr align 8 %11, i8 0, i64 24, i1 false)
  call void @_ZNSt6vectorINSt7__cxx1112basic_stringIcSt11char_traitsIcESaIcEEESaIS5_EEC2Ev(ptr noundef nonnull align 8 dereferenceable(24) %11) #1
  invoke void @_ZN3nix5flakeL8getFlakeERNS_9EvalStateERKNS_8FlakeRefEbRSt6vectorISt4pairIS3_S7_INS_9StorePathES3_EESaISA_EES6_INSt7__cxx1112basic_stringIcSt11char_traitsIcESaIcEEESaISJ_EE(ptr dead_on_unwind writable sret(%"struct.nix::flake::Flake") align 8 %0, ptr noundef nonnull align 8 dereferenceable(1248) %15, ptr noundef nonnull align 8 dereferenceable(136) %16, i1 noundef zeroext %18, ptr noundef nonnull align 8 dereferenceable(24) %19, ptr noundef %11)
          to label %20 unwind label %21

20:                                               ; preds = %5
  call void @_ZNSt6vectorINSt7__cxx1112basic_stringIcSt11char_traitsIcESaIcEEESaIS5_EED2Ev(ptr noundef nonnull align 8 dereferenceable(24) %11) #1
  ret void

21:                                               ; preds = %5
  %22 = landingpad { ptr, i32 }
          cleanup
  %23 = extractvalue { ptr, i32 } %22, 0
  store ptr %23, ptr %12, align 8
  %24 = extractvalue { ptr, i32 } %22, 1
  store i32 %24, ptr %13, align 4
  call void @_ZNSt6vectorINSt7__cxx1112basic_stringIcSt11char_traitsIcESaIcEEESaIS5_EED2Ev(ptr noundef nonnull align 8 dereferenceable(24) %11) #1
  br label %25

25:                                               ; preds = %21
  %26 = load ptr, ptr %12, align 8
  %27 = load i32, ptr %13, align 4
  %28 = insertvalue { ptr, i32 } poison, ptr %26, 0
  %29 = insertvalue { ptr, i32 } %28, i32 %27, 1
  resume { ptr, i32 } %29
}

; Function Attrs: mustprogress nounwind uwtable
define linkonce_odr void @_ZNSt6vectorISt4pairIN3nix8FlakeRefES0_INS1_9StorePathES2_EESaIS5_EEC2Ev(ptr noundef nonnull align 8 dereferenceable(24) %0) unnamed_addr #2 comdat align 2 {
  %2 = alloca ptr, align 8
  store ptr %0, ptr %2, align 8
  %3 = load ptr, ptr %2, align 8
  call void @_ZNSt12_Vector_baseISt4pairIN3nix8FlakeRefES0_INS1_9StorePathES2_EESaIS5_EEC2Ev(ptr noundef nonnull align 8 dereferenceable(24) %3) #1
  ret void
}

; Function Attrs: mustprogress uwtable
define void @_ZN3nix5flake8getFlakeERNS_9EvalStateERKNS_8FlakeRefEb(ptr dead_on_unwind noalias writable sret(%"struct.nix::flake::Flake") align 8 %0, ptr noundef nonnull align 8 dereferenceable(1248) %1, ptr noundef nonnull align 8 dereferenceable(136) %2, i1 noundef zeroext %3) #5 personality ptr @__gxx_personality_v0 {
  %5 = alloca ptr, align 8
  %6 = alloca ptr, align 8
  %7 = alloca ptr, align 8
  %8 = alloca i8, align 1
  %9 = alloca %"class.std::vector.125", align 8
  %10 = alloca ptr, align 8
  %11 = alloca i32, align 4
  store ptr %0, ptr %5, align 8
  store ptr %1, ptr %6, align 8
  store ptr %2, ptr %7, align 8
  %12 = zext i1 %3 to i8
  store i8 %12, ptr %8, align 1
  call void @_ZNSt6vectorISt4pairIN3nix8FlakeRefES0_INS1_9StorePathES2_EESaIS5_EEC2Ev(ptr noundef nonnull align 8 dereferenceable(24) %9) #1
  %13 = load ptr, ptr %6, align 8
  %14 = load ptr, ptr %7, align 8
  %15 = load i8, ptr %8, align 1
  %16 = trunc i8 %15 to i1
  invoke void @_ZN3nix5flake8getFlakeERNS_9EvalStateERKNS_8FlakeRefEbRSt6vectorISt4pairIS3_S7_INS_9StorePathES3_EESaISA_EE(ptr dead_on_unwind writable sret(%"struct.nix::flake::Flake") align 8 %0, ptr noundef nonnull align 8 dereferenceable(1248) %13, ptr noundef nonnull align 8 dereferenceable(136) %14, i1 noundef zeroext %16, ptr noundef nonnull align 8 dereferenceable(24) %9)
          to label %17 unwind label %18

17:                                               ; preds = %4
  call void @_ZNSt6vectorISt4pairIN3nix8FlakeRefES0_INS1_9StorePathES2_EESaIS5_EED2Ev(ptr noundef nonnull align 8 dereferenceable(24) %9) #1
  ret void

18:                                               ; preds = %4
  %19 = landingpad { ptr, i32 }
          cleanup
  %20 = extractvalue { ptr, i32 } %19, 0
  store ptr %20, ptr %10, align 8
  %21 = extractvalue { ptr, i32 } %19, 1
  store i32 %21, ptr %11, align 4
  call void @_ZNSt6vectorISt4pairIN3nix8FlakeRefES0_INS1_9StorePathES2_EESaIS5_EED2Ev(ptr noundef nonnull align 8 dereferenceable(24) %9) #1
  br label %22

22:                                               ; preds = %18
  %23 = load ptr, ptr %10, align 8
  %24 = load i32, ptr %11, align 4
  %25 = insertvalue { ptr, i32 } poison, ptr %23, 0
  %26 = insertvalue { ptr, i32 } %25, i32 %24, 1
  resume { ptr, i32 } %26
}