; Function Attrs: mustprogress uwtable
define void @_ZN3nix5flake8getFlakeERNS_9EvalStateERKNS_8FlakeRefEb(ptr dead_on_unwind noalias writable sret(%"struct.nix::flake::Flake") align 8 %0, ptr noundef nonnull align 8 dereferenceable(1248) %1, ptr noundef nonnull align 8 dereferenceable(136) %2, i1 noundef zeroext %3) local_unnamed_addr #4 personality ptr @__gxx_personality_v0 {
  %5 = alloca %"class.std::vector", align 8
  %6 = alloca %"class.std::vector.125", align 8
  call void @llvm.memset.p0.i64(ptr noundef nonnull align 8 dereferenceable(24) %6, i8 0, i64 24, i1 false)
  call void @llvm.lifetime.start.p0(i64 24, ptr nonnull %5)
  call void @llvm.memset.p0.i64(ptr noundef nonnull align 8 dereferenceable(24) %5, i8 0, i64 24, i1 false), !noalias !13
  invoke fastcc void @_ZN3nix5flakeL8getFlakeERNS_9EvalStateERKNS_8FlakeRefEbRSt6vectorISt4pairIS3_S7_INS_9StorePathES3_EESaISA_EES6_INSt7__cxx1112basic_stringIcSt11char_traitsIcESaIcEEESaISJ_EE(ptr dead_on_unwind noalias writable align 8 %0, ptr noundef nonnull align 8 dereferenceable(1248) %1, ptr noundef nonnull align 8 dereferenceable(136) %2, i1 noundef zeroext %3, ptr noundef nonnull align 8 dereferenceable(24) %6, ptr noundef nonnull %5)
          to label %7 unwind label %.body

7:                                                ; preds = %4
  %8 = load ptr, ptr %5, align 8, !noalias !13
  %9 = getelementptr inbounds i8, ptr %5, i64 8
  %10 = load ptr, ptr %9, align 8, !noalias !13
  %.not4.i.i.i.i.i = icmp eq ptr %8, %10
  br i1 %.not4.i.i.i.i.i, label %_ZSt8_DestroyIPNSt7__cxx1112basic_stringIcSt11char_traitsIcESaIcEEES5_EvT_S7_RSaIT0_E.exit.i.i, label %.lr.ph.i.i.i.i.i

.lr.ph.i.i.i.i.i:                                 ; preds = %7, %_ZSt8_DestroyINSt7__cxx1112basic_stringIcSt11char_traitsIcESaIcEEEEvPT_.exit.i.i.i.i.i
  %.05.i.i.i.i.i = phi ptr [ %17, %_ZSt8_DestroyINSt7__cxx1112basic_stringIcSt11char_traitsIcESaIcEEEEvPT_.exit.i.i.i.i.i ], [ %8, %7 ]
  %11 = load ptr, ptr %.05.i.i.i.i.i, align 8
  %12 = getelementptr inbounds i8, ptr %.05.i.i.i.i.i, i64 16
  %13 = icmp eq ptr %11, %12
  br i1 %13, label %_ZNKSt7__cxx1112basic_stringIcSt11char_traitsIcESaIcEE11_M_is_localEv.exit.thread.i.i.i.i.i.i.i.i.i, label %_ZNKSt7__cxx1112basic_stringIcSt11char_traitsIcESaIcEE11_M_is_localEv.exit.i.i.i.i.i.i.i.i.i

_ZNKSt7__cxx1112basic_stringIcSt11char_traitsIcESaIcEE11_M_is_localEv.exit.thread.i.i.i.i.i.i.i.i.i: ; preds = %.lr.ph.i.i.i.i.i
  %14 = getelementptr inbounds i8, ptr %.05.i.i.i.i.i, i64 8
  %15 = load i64, ptr %14, align 8
  %16 = icmp ult i64 %15, 16
  call void @llvm.assume(i1 %16)
  br label %_ZSt8_DestroyINSt7__cxx1112basic_stringIcSt11char_traitsIcESaIcEEEEvPT_.exit.i.i.i.i.i

_ZNKSt7__cxx1112basic_stringIcSt11char_traitsIcESaIcEE11_M_is_localEv.exit.i.i.i.i.i.i.i.i.i: ; preds = %.lr.ph.i.i.i.i.i
  call void @_ZdlPv(ptr noundef %11) #30
  br label %_ZSt8_DestroyINSt7__cxx1112basic_stringIcSt11char_traitsIcESaIcEEEEvPT_.exit.i.i.i.i.i

_ZSt8_DestroyINSt7__cxx1112basic_stringIcSt11char_traitsIcESaIcEEEEvPT_.exit.i.i.i.i.i: ; preds = %_ZNKSt7__cxx1112basic_stringIcSt11char_traitsIcESaIcEE11_M_is_localEv.exit.i.i.i.i.i.i.i.i.i, %_ZNKSt7__cxx1112basic_stringIcSt11char_traitsIcESaIcEE11_M_is_localEv.exit.thread.i.i.i.i.i.i.i.i.i
  call void @_ZNSaIcED2Ev(ptr noundef nonnull align 1 dereferenceable(1) %.05.i.i.i.i.i) #27
  %17 = getelementptr inbounds i8, ptr %.05.i.i.i.i.i, i64 32
  %.not.i.i.i.i.i = icmp eq ptr %17, %10
  br i1 %.not.i.i.i.i.i, label %_ZSt8_DestroyIPNSt7__cxx1112basic_stringIcSt11char_traitsIcESaIcEEES5_EvT_S7_RSaIT0_E.exitthread-pre-split.i.i, label %.lr.ph.i.i.i.i.i, !llvm.loop !4

_ZSt8_DestroyIPNSt7__cxx1112basic_stringIcSt11char_traitsIcESaIcEEES5_EvT_S7_RSaIT0_E.exitthread-pre-split.i.i: ; preds = %_ZSt8_DestroyINSt7__cxx1112basic_stringIcSt11char_traitsIcESaIcEEEEvPT_.exit.i.i.i.i.i
  %.pr.i.i = load ptr, ptr %5, align 8, !noalias !13
  br label %_ZSt8_DestroyIPNSt7__cxx1112basic_stringIcSt11char_traitsIcESaIcEEES5_EvT_S7_RSaIT0_E.exit.i.i

_ZSt8_DestroyIPNSt7__cxx1112basic_stringIcSt11char_traitsIcESaIcEEES5_EvT_S7_RSaIT0_E.exit.i.i: ; preds = %_ZSt8_DestroyIPNSt7__cxx1112basic_stringIcSt11char_traitsIcESaIcEEES5_EvT_S7_RSaIT0_E.exitthread-pre-split.i.i, %7
  %18 = phi ptr [ %.pr.i.i, %_ZSt8_DestroyIPNSt7__cxx1112basic_stringIcSt11char_traitsIcESaIcEEES5_EvT_S7_RSaIT0_E.exitthread-pre-split.i.i ], [ %8, %7 ]
  %.not.i.i.i.i = icmp eq ptr %18, null
  br i1 %.not.i.i.i.i, label %21, label %19

19:                                               ; preds = %_ZSt8_DestroyIPNSt7__cxx1112basic_stringIcSt11char_traitsIcESaIcEEES5_EvT_S7_RSaIT0_E.exit.i.i
  call void @_ZdlPv(ptr noundef nonnull %18) #30
  br label %21

.body:                                            ; preds = %4
  %20 = landingpad { ptr, i32 }
          cleanup
  call void @_ZNSt6vectorINSt7__cxx1112basic_stringIcSt11char_traitsIcESaIcEEESaIS5_EED2Ev(ptr noundef nonnull align 8 dereferenceable(24) %5) #27
  call void @_ZNSt6vectorISt4pairIN3nix8FlakeRefES0_INS1_9StorePathES2_EESaIS5_EED2Ev(ptr noundef nonnull align 8 dereferenceable(24) %6) #27
  resume { ptr, i32 } %20

21:                                               ; preds = %19, %_ZSt8_DestroyIPNSt7__cxx1112basic_stringIcSt11char_traitsIcESaIcEEES5_EvT_S7_RSaIT0_E.exit.i.i
  call void @llvm.lifetime.end.p0(i64 24, ptr nonnull %5)
  %22 = load ptr, ptr %6, align 8
  %23 = getelementptr inbounds i8, ptr %6, i64 8
  %24 = load ptr, ptr %23, align 8
  %.not4.i.i.i.i = icmp eq ptr %22, %24
  br i1 %.not4.i.i.i.i, label %_ZSt8_DestroyIPSt4pairIN3nix8FlakeRefES0_INS1_9StorePathES2_EES5_EvT_S7_RSaIT0_E.exit.i, label %.lr.ph.i.i.i.i

.lr.ph.i.i.i.i:                                   ; preds = %21, %.lr.ph.i.i.i.i
  %.05.i.i.i.i = phi ptr [ %25, %.lr.ph.i.i.i.i ], [ %22, %21 ]
  call void @_ZNSt4pairIN3nix8FlakeRefES_INS0_9StorePathES1_EED2Ev(ptr noundef nonnull align 8 dereferenceable(304) %.05.i.i.i.i) #27
  %25 = getelementptr inbounds i8, ptr %.05.i.i.i.i, i64 304
  %.not.i.i.i.i4 = icmp eq ptr %25, %24
  br i1 %.not.i.i.i.i4, label %_ZSt8_DestroyIPSt4pairIN3nix8FlakeRefES0_INS1_9StorePathES2_EES5_EvT_S7_RSaIT0_E.exitthread-pre-split.i, label %.lr.ph.i.i.i.i, !llvm.loop !16

_ZSt8_DestroyIPSt4pairIN3nix8FlakeRefES0_INS1_9StorePathES2_EES5_EvT_S7_RSaIT0_E.exitthread-pre-split.i: ; preds = %.lr.ph.i.i.i.i
  %.pr.i = load ptr, ptr %6, align 8
  br label %_ZSt8_DestroyIPSt4pairIN3nix8FlakeRefES0_INS1_9StorePathES2_EES5_EvT_S7_RSaIT0_E.exit.i

_ZSt8_DestroyIPSt4pairIN3nix8FlakeRefES0_INS1_9StorePathES2_EES5_EvT_S7_RSaIT0_E.exit.i: ; preds = %_ZSt8_DestroyIPSt4pairIN3nix8FlakeRefES0_INS1_9StorePathES2_EES5_EvT_S7_RSaIT0_E.exitthread-pre-split.i, %21
  %26 = phi ptr [ %.pr.i, %_ZSt8_DestroyIPSt4pairIN3nix8FlakeRefES0_INS1_9StorePathES2_EES5_EvT_S7_RSaIT0_E.exitthread-pre-split.i ], [ %22, %21 ]
  %.not.i.i.i = icmp eq ptr %26, null
  br i1 %.not.i.i.i, label %_ZNSt6vectorISt4pairIN3nix8FlakeRefES0_INS1_9StorePathES2_EESaIS5_EED2Ev.exit, label %27

27:                                               ; preds = %_ZSt8_DestroyIPSt4pairIN3nix8FlakeRefES0_INS1_9StorePathES2_EES5_EvT_S7_RSaIT0_E.exit.i
  call void @_ZdlPv(ptr noundef nonnull %26) #30
  br label %_ZNSt6vectorISt4pairIN3nix8FlakeRefES0_INS1_9StorePathES2_EESaIS5_EED2Ev.exit

_ZNSt6vectorISt4pairIN3nix8FlakeRefES0_INS1_9StorePathES2_EESaIS5_EED2Ev.exit: ; preds = %_ZSt8_DestroyIPSt4pairIN3nix8FlakeRefES0_INS1_9StorePathES2_EES5_EvT_S7_RSaIT0_E.exit.i, %27
  ret void
}